target datalayout = "e-m:e-p270:32:32-p271:32:32-p272:64:64-i64:64-i128:128-f80:128-n8:16:32:64-S128"
target triple = "x86_64-pc-linux-gnu"

%"class.icu_77::number::Notation" = type { i32, %"union.icu_77::number::Notation::NotationUnion" }
%"union.icu_77::number::Notation::NotationUnion" = type { %"struct.icu_77::number::Notation::NotationUnion::ScientificSettings" }
%"struct.icu_77::number::Notation::NotationUnion::ScientificSettings" = type { i8, i8, i16, i32 }
%"class.icu_77::MeasureUnit" = type <{ %"class.icu_77::UObject", ptr, i16, i8, [5 x i8] }>
%"class.icu_77::UObject" = type { ptr }
%"class.icu_77::number::Precision" = type <{ i32, [4 x i8], %"union.icu_77::number::Precision::PrecisionUnion", i32, [4 x i8] }>
%"union.icu_77::number::Precision::PrecisionUnion" = type { %"struct.icu_77::number::Precision::PrecisionUnion::IncrementSettings" }
%"struct.icu_77::number::Precision::PrecisionUnion::IncrementSettings" = type { i64, i16, i16 }
%"struct.icu_77::number::impl::MacroProps" = type { [4 x i8], %"class.icu_77::number::Notation", %"class.icu_77::MeasureUnit", %"class.icu_77::MeasureUnit", %"class.icu_77::number::Precision", i32, %"class.icu_77::number::impl::Grouper", %"class.icu_77::number::impl::Padder", %"class.icu_77::number::IntegerWidth", %"class.icu_77::number::impl::SymbolsWrapper", i32, i32, i8, i32, %"class.icu_77::number::Scale", %"class.icu_77::number::impl::StringProp", %"class.icu_77::number::impl::StringProp", ptr, ptr, i32, [4 x i8], %"class.icu_77::Locale" }
%"class.icu_77::number::impl::Grouper" = type { i16, i16, i16, i32 }
%"class.icu_77::number::impl::Padder" = type { i32, %union.anon }
%union.anon = type { %struct.anon.1 }
%struct.anon.1 = type { i32, i32 }
%"class.icu_77::number::IntegerWidth" = type <{ %union.anon.2, i8, [3 x i8] }>
%union.anon.2 = type { i32, [4 x i8] }
%"class.icu_77::number::impl::SymbolsWrapper" = type { i32, %union.anon.4 }
%union.anon.4 = type { ptr }
%"class.icu_77::number::Scale" = type <{ i32, [4 x i8], ptr, i32, [4 x i8] }>
%"class.icu_77::number::impl::StringProp" = type { ptr, i16, i32 }
%"class.icu_77::Locale" = type <{ %"class.icu_77::UObject", [12 x i8], [6 x i8], [4 x i8], [2 x i8], i32, [4 x i8], ptr, [157 x i8], [3 x i8], ptr, i8, [7 x i8] }>

; Function Attrs: mustprogress nounwind uwtable
define linkonce_odr noundef zeroext i1 @_ZNK6icu_776number4impl7Grouper7isBogusEv(ptr noundef nonnull align 4 dereferenceable(12) %0) #0 comdat align 2 {
  %2 = alloca ptr, align 8
  store ptr %0, ptr %2, align 8, !tbaa !223
  %3 = load ptr, ptr %2, align 8
  %4 = getelementptr inbounds nuw %"class.icu_77::number::impl::Grouper", ptr %3, i32 0, i32 0
  %5 = load i16, ptr %4, align 4, !tbaa !225
  %6 = sext i16 %5 to i32
  %7 = icmp eq i32 %6, -3
  ret i1 %7
}

; Function Attrs: mustprogress uwtable
define noundef zeroext i1 @_ZN6icu_776number4impl16GeneratorHelpers8groupingERKNS1_10MacroPropsERNS_13UnicodeStringER10UErrorCode(ptr noundef nonnull align 8 dereferenceable(472) %0, ptr noundef nonnull align 8 dereferenceable(64) %1, ptr noundef nonnull align 4 dereferenceable(4) %2) #1 align 2 {
  %4 = alloca i1, align 1
  %5 = alloca ptr, align 8
  %6 = alloca ptr, align 8
  %7 = alloca ptr, align 8
  store ptr %0, ptr %5, align 8, !tbaa !75
  store ptr %1, ptr %6, align 8, !tbaa !27
  store ptr %2, ptr %7, align 8, !tbaa !22
  %8 = load ptr, ptr %5, align 8, !tbaa !75
  %9 = getelementptr inbounds nuw %"struct.icu_77::number::impl::MacroProps", ptr %8, i32 0, i32 6
  %10 = call noundef zeroext i1 @_ZNK6icu_776number4impl7Grouper7isBogusEv(ptr noundef nonnull align 4 dereferenceable(12) %9)
  br i1 %10, label %11, label %12

11:                                               ; preds = %3
  store i1 false, ptr %4, align 1
  br label %33

12:                                               ; preds = %3
  %13 = load ptr, ptr %5, align 8, !tbaa !75
  %14 = getelementptr inbounds nuw %"struct.icu_77::number::impl::MacroProps", ptr %13, i32 0, i32 6
  %15 = getelementptr inbounds nuw %"class.icu_77::number::impl::Grouper", ptr %14, i32 0, i32 3
  %16 = load i32, ptr %15, align 4, !tbaa !186
  %17 = icmp eq i32 %16, 5
  br i1 %17, label %18, label %20

18:                                               ; preds = %12
  %19 = load ptr, ptr %7, align 8, !tbaa !22
  store i32 16, ptr %19, align 4, !tbaa !15
  store i1 false, ptr %4, align 1
  br label %33

20:                                               ; preds = %12
  %21 = load ptr, ptr %5, align 8, !tbaa !75
  %22 = getelementptr inbounds nuw %"struct.icu_77::number::impl::MacroProps", ptr %21, i32 0, i32 6
  %23 = getelementptr inbounds nuw %"class.icu_77::number::impl::Grouper", ptr %22, i32 0, i32 3
  %24 = load i32, ptr %23, align 4, !tbaa !186
  %25 = icmp eq i32 %24, 2
  br i1 %25, label %26, label %27

26:                                               ; preds = %20
  store i1 false, ptr %4, align 1
  br label %33

27:                                               ; preds = %20
  %28 = load ptr, ptr %5, align 8, !tbaa !75
  %29 = getelementptr inbounds nuw %"struct.icu_77::number::impl::MacroProps", ptr %28, i32 0, i32 6
  %30 = getelementptr inbounds nuw %"class.icu_77::number::impl::Grouper", ptr %29, i32 0, i32 3
  %31 = load i32, ptr %30, align 4, !tbaa !186
  %32 = load ptr, ptr %6, align 8, !tbaa !27
  call void @_ZN6icu_776number4impl19enum_to_stem_string16groupingStrategyE23UNumberGroupingStrategyRNS_13UnicodeStringE(i32 noundef %31, ptr noundef nonnull align 8 dereferenceable(64) %32)
  store i1 true, ptr %4, align 1
  br label %33

33:                                               ; preds = %27, %26, %18, %11
  %34 = load i1, ptr %4, align 1
  ret i1 %34
}