; Function Attrs: mustprogress uwtable
define noundef zeroext i1 @_ZN6icu_776number4impl16GeneratorHelpers8groupingERKNS1_10MacroPropsERNS_13UnicodeStringER10UErrorCode(ptr noundef nonnull readonly align 8 captures(none) dereferenceable(472) %0, ptr noundef nonnull align 8 dereferenceable(64) %1, ptr noundef nonnull writeonly align 4 captures(none) dereferenceable(4) %2) local_unnamed_addr #1 align 2 {
  %4 = getelementptr inbounds nuw i8, ptr %0, i64 100
  %5 = load i16, ptr %4, align 4, !tbaa !75
  %6 = icmp eq i16 %5, -3
  br i1 %6, label %12, label %7

7:                                                ; preds = %3
  %8 = getelementptr inbounds nuw i8, ptr %0, i64 108
  %9 = load i32, ptr %8, align 4, !tbaa !149
  switch i32 %9, label %11 [
    i32 5, label %10
    i32 2, label %12
  ]

10:                                               ; preds = %7
  store i32 16, ptr %2, align 4, !tbaa !13
  br label %12

11:                                               ; preds = %7
  tail call void @_ZN6icu_776number4impl19enum_to_stem_string16groupingStrategyE23UNumberGroupingStrategyRNS_13UnicodeStringE(i32 noundef %9, ptr noundef nonnull align 8 dereferenceable(64) %1)
  br label %12

12:                                               ; preds = %7, %3, %11, %10
  %.0 = phi i1 [ false, %10 ], [ true, %11 ], [ false, %3 ], [ false, %7 ]
  ret i1 %.0
}